; ModuleID = '40/26.c'
source_filename = "40/26.c"
target datalayout = "e-m:e-p270:32:32-p271:32:32-p272:64:64-i64:64-f80:128-n8:16:32:64-S128"
target triple = "x86_64-pc-linux-gnu"

@.str = private unnamed_addr constant [20 x i8] c"%lf %lf %lf %lf %lf\00", align 1
@.str.1 = private unnamed_addr constant [14 x i8] c"Invalid input\00", align 1
@.str.2 = private unnamed_addr constant [6 x i8] c"%.4lf\00", align 1

; Function Attrs: noinline nounwind uwtable
define dso_local void @main() #0 {
  %1 = alloca double, align 8
  %2 = alloca double, align 8
  %3 = alloca double, align 8
  %4 = alloca double, align 8
  %5 = alloca double, align 8
  %6 = alloca double, align 8
  %7 = alloca double, align 8
  %8 = call i32 (i8*, ...) @__isoc99_scanf(i8* getelementptr inbounds ([20 x i8], [20 x i8]* @.str, i64 0, i64 0), double* %1, double* %2, double* %3, double* %4, double* %5)
  %9 = load double, double* %1, align 8
  %10 = load double, double* %2, align 8
  %11 = fadd double %9, %10
  %12 = load double, double* %3, align 8
  %13 = fadd double %11, %12
  %14 = load double, double* %4, align 8
  %15 = fadd double %13, %14
  %16 = fmul double 5.000000e-01, %15
  store double %16, double* %6, align 8
  %17 = load double, double* %5, align 8
  %18 = fdiv double %17, 2.000000e+00
  %19 = fdiv double %18, 3.600000e+02
  %20 = fmul double %19, 2.000000e+00
  %21 = fmul double %20, 3.140000e+00
  store double %21, double* %5, align 8
  %22 = load double, double* %6, align 8
  %23 = load double, double* %1, align 8
  %24 = fsub double %22, %23
  %25 = load double, double* %6, align 8
  %26 = load double, double* %2, align 8
  %27 = fsub double %25, %26
  %28 = fmul double %24, %27
  %29 = load double, double* %6, align 8
  %30 = load double, double* %3, align 8
  %31 = fsub double %29, %30
  %32 = fmul double %28, %31
  %33 = load double, double* %6, align 8
  %34 = load double, double* %4, align 8
  %35 = fsub double %33, %34
  %36 = fmul double %32, %35
  %37 = load double, double* %1, align 8
  %38 = load double, double* %2, align 8
  %39 = fmul double %37, %38
  %40 = load double, double* %3, align 8
  %41 = fmul double %39, %40
  %42 = load double, double* %4, align 8
  %43 = fmul double %41, %42
  %44 = load double, double* %5, align 8
  %45 = call double @cos(double %44) #3
  %46 = fmul double %43, %45
  %47 = load double, double* %5, align 8
  %48 = call double @cos(double %47) #3
  %49 = fmul double %46, %48
  %50 = fsub double %36, %49
  %51 = call double @sqrt(double %50) #3
  store double %51, double* %7, align 8
  %52 = load double, double* %6, align 8
  %53 = load double, double* %1, align 8
  %54 = fsub double %52, %53
  %55 = load double, double* %6, align 8
  %56 = load double, double* %2, align 8
  %57 = fsub double %55, %56
  %58 = fmul double %54, %57
  %59 = load double, double* %6, align 8
  %60 = load double, double* %3, align 8
  %61 = fsub double %59, %60
  %62 = fmul double %58, %61
  %63 = load double, double* %6, align 8
  %64 = load double, double* %4, align 8
  %65 = fsub double %63, %64
  %66 = fmul double %62, %65
  %67 = load double, double* %1, align 8
  %68 = load double, double* %2, align 8
  %69 = fmul double %67, %68
  %70 = load double, double* %3, align 8
  %71 = fmul double %69, %70
  %72 = load double, double* %4, align 8
  %73 = fmul double %71, %72
  %74 = load double, double* %5, align 8
  %75 = call double @cos(double %74) #3
  %76 = fmul double %73, %75
  %77 = load double, double* %5, align 8
  %78 = call double @cos(double %77) #3
  %79 = fmul double %76, %78
  %80 = fsub double %66, %79
  %81 = fcmp olt double %80, 0.000000e+00
  br i1 %81, label %82, label %84

82:                                               ; preds = %0
  %83 = call i32 (i8*, ...) @printf(i8* getelementptr inbounds ([14 x i8], [14 x i8]* @.str.1, i64 0, i64 0))
  br label %87

84:                                               ; preds = %0
  %85 = load double, double* %7, align 8
  %86 = call i32 (i8*, ...) @printf(i8* getelementptr inbounds ([6 x i8], [6 x i8]* @.str.2, i64 0, i64 0), double %85)
  br label %87

87:                                               ; preds = %84, %82
  ret void
}

declare dso_local i32 @__isoc99_scanf(i8*, ...) #1

; Function Attrs: nounwind
declare dso_local double @sqrt(double) #2

; Function Attrs: nounwind
declare dso_local double @cos(double) #2

declare dso_local i32 @printf(i8*, ...) #1


!llvm.module.flags = !{!0}
!llvm.ident = !{!1}

!0 = !{i32 1, !"wchar_size", i32 4}
!1 = !{!"clang version 10.0.0-4ubuntu1 "}
